; Function Attrs: mustprogress nofree norecurse nosync nounwind willreturn memory(argmem: write) uwtable
define hidden void @_ZN5zxing11ResultPointC2Ev(ptr noundef nonnull writeonly align 8 captures(none) dereferenceable(20) initializes((0, 20)) %0) unnamed_addr #0 align 2 {
  %2 = getelementptr inbounds nuw i8, ptr %0, i64 8
  store i32 0, ptr %2, align 8, !tbaa !3
  store ptr getelementptr inbounds nuw inrange(-16, 48) (i8, ptr @_ZTVN5zxing11ResultPointE, i64 16), ptr %0, align 8, !tbaa !8
  %3 = getelementptr inbounds nuw i8, ptr %0, i64 12
  store float 0.000000e+00, ptr %3, align 4, !tbaa !10
  %4 = getelementptr inbounds nuw i8, ptr %0, i64 16
  store float 0.000000e+00, ptr %4, align 8, !tbaa !13
  ret void
}